target datalayout = "e-m:e-p270:32:32-p271:32:32-p272:64:64-i64:64-i128:128-f80:128-n8:16:32:64-S128"
target triple = "x86_64-pc-linux-gnu"

%struct._address = type { i32, i32, ptr, ptr }
%struct.ieee1905_fragment_key = type { %struct._address, %struct._address, i32, i8 }

; Function Attrs: inlinehint nounwind null_pointer_is_valid sspstrong uwtable
define internal void @clear_address(ptr noundef %0) #7 {
  %2 = alloca ptr, align 8
  store ptr %0, ptr %2, align 8
  %3 = load ptr, ptr %2, align 8
  %4 = getelementptr inbounds nuw %struct._address, ptr %3, i32 0, i32 0
  store i32 0, ptr %4, align 8
  %5 = load ptr, ptr %2, align 8
  %6 = getelementptr inbounds nuw %struct._address, ptr %5, i32 0, i32 1
  store i32 0, ptr %6, align 4
  %7 = load ptr, ptr %2, align 8
  %8 = getelementptr inbounds nuw %struct._address, ptr %7, i32 0, i32 2
  store ptr null, ptr %8, align 8
  %9 = load ptr, ptr %2, align 8
  %10 = getelementptr inbounds nuw %struct._address, ptr %9, i32 0, i32 3
  store ptr null, ptr %10, align 8
  ret void
}

; Function Attrs: inlinehint null_pointer_is_valid sspstrong uwtable
define internal void @free_address_wmem(ptr noundef %0, ptr noundef %1) #10 {
  %3 = alloca ptr, align 8
  %4 = alloca ptr, align 8
  store ptr %0, ptr %3, align 8
  store ptr %1, ptr %4, align 8
  %5 = load ptr, ptr %4, align 8
  %6 = getelementptr inbounds nuw %struct._address, ptr %5, i32 0, i32 0
  %7 = load i32, ptr %6, align 8
  %8 = icmp ne i32 %7, 0
  br i1 %8, label %9, label %26

9:                                                ; preds = %2
  %10 = load ptr, ptr %4, align 8
  %11 = getelementptr inbounds nuw %struct._address, ptr %10, i32 0, i32 1
  %12 = load i32, ptr %11, align 4
  %13 = icmp sgt i32 %12, 0
  br i1 %13, label %14, label %26

14:                                               ; preds = %9
  %15 = load ptr, ptr %4, align 8
  %16 = getelementptr inbounds nuw %struct._address, ptr %15, i32 0, i32 3
  %17 = load ptr, ptr %16, align 8
  %18 = icmp ne ptr %17, null
  br i1 %18, label %19, label %26

19:                                               ; preds = %14
  br label %20

20:                                               ; preds = %19
  br label %21

21:                                               ; preds = %20
  %22 = load ptr, ptr %3, align 8
  %23 = load ptr, ptr %4, align 8
  %24 = getelementptr inbounds nuw %struct._address, ptr %23, i32 0, i32 3
  %25 = load ptr, ptr %24, align 8
  call void @wmem_free(ptr noundef %22, ptr noundef %25)
  br label %26

26:                                               ; preds = %21, %14, %9, %2
  %27 = load ptr, ptr %4, align 8
  call void @clear_address(ptr noundef %27)
  ret void
}

; Function Attrs: inlinehint null_pointer_is_valid sspstrong uwtable
define internal void @free_address(ptr noundef %0) #10 {
  %2 = alloca ptr, align 8
  store ptr %0, ptr %2, align 8
  %3 = load ptr, ptr %2, align 8
  call void @free_address_wmem(ptr noundef null, ptr noundef %3)
  ret void
}

; Function Attrs: null_pointer_is_valid sspstrong uwtable
define internal void @ieee1905_fragment_free_persistent_key(ptr noundef %0) #0 {
  %2 = alloca ptr, align 8
  %3 = alloca ptr, align 8
  store ptr %0, ptr %2, align 8
  call void @llvm.lifetime.start.p0(i64 8, ptr %3) #12
  %4 = load ptr, ptr %2, align 8
  store ptr %4, ptr %3, align 8
  %5 = load ptr, ptr %3, align 8
  %6 = icmp ne ptr %5, null
  br i1 %6, label %7, label %16

7:                                                ; preds = %1
  %8 = load ptr, ptr %3, align 8
  %9 = getelementptr inbounds nuw %struct.ieee1905_fragment_key, ptr %8, i32 0, i32 0
  call void @free_address(ptr noundef %9)
  %10 = load ptr, ptr %3, align 8
  %11 = getelementptr inbounds nuw %struct.ieee1905_fragment_key, ptr %10, i32 0, i32 1
  call void @free_address(ptr noundef %11)
  br label %12

12:                                               ; preds = %7
  %13 = load ptr, ptr %3, align 8
  call void @g_slice_free1(i64 noundef 56, ptr noundef %13)
  br label %14

14:                                               ; preds = %12
  br label %15

15:                                               ; preds = %14
  br label %16

16:                                               ; preds = %15, %1
  call void @llvm.lifetime.end.p0(i64 8, ptr %3) #12
  ret void
}